ihand_series
HandSeries
p0
(dp1
S'hands'
p2
(dp3
L131029684367968412L
(ihand
Hand
p4
(dp5
S'_joint_angles_dict'
p6
(dp7
chand
Joint
p8
(I20
tp9
Rp10
(iquaternion
Quaternion
p11
(dp12
S'y'
p13
F0.0
sS'x'
p14
F0.5622967
sS'z'
p15
F0.0
sS'w'
p16
F0.8269356
sbsg8
(I19
tp17
Rp18
(iquaternion
Quaternion
p19
(dp20
g13
F-0.05529485
sg14
F0.1614525
sg15
F-0.3507523
sg16
F0.9207869
sbsg8
(I18
tp21
Rp22
(iquaternion
Quaternion
p23
(dp24
g13
F0.0
sg14
F0.0
sg15
F0.3007058
sg16
F0.953717
sbsg8
(I1
tp25
Rp26
(iquaternion
Quaternion
p27
(dp28
g13
F0.0
sg14
F0.0
sg15
F0.0
sg16
F1.0
sbsg8
(I3
tp29
Rp30
(iquaternion
Quaternion
p31
(dp32
g13
F-0.07205428
sg14
F0.3851192
sg15
F0.2395274
sg16
F0.8883232
sbsg8
(I4
tp33
Rp34
(iquaternion
Quaternion
p35
(dp36
g13
F-8.114845e-09
sg14
F0.3942849
sg15
F0.03942847
sg16
F0.9181421
sbsg8
(I2
tp37
Rp38
(iquaternion
Quaternion
p39
(dp40
g13
F0.0
sg14
F0.0
sg15
F-0.5372996
sg16
F0.8433914
sbsg8
(I14
tp41
Rp42
(iquaternion
Quaternion
p43
(dp44
g13
F0.0
sg14
F0.0
sg15
F0.1305262
sg16
F0.9914449
sbsg8
(I16
tp45
Rp46
(iquaternion
Quaternion
p47
(dp48
g13
F0.0
sg14
F0.4977829
sg15
F0.0
sg16
F0.8673016
sbsg8
(I15
tp49
Rp50
(iquaternion
Quaternion
p51
(dp52
g13
F-0.02300678
sg14
F0.08776342
sg15
F-0.2525314
sg16
F0.9633256
sbsg8
(I13
tp53
Rp54
(iquaternion
Quaternion
p55
(dp56
g13
F0.0
sg14
F0.3064601
sg15
F0.0
sg16
F0.9518835
sbsg8
(I17
tp57
Rp58
(iquaternion
Quaternion
p59
(dp60
g13
F0.0
sg14
F0.2392658
sg15
F0.0
sg16
F0.9709541
sbsg8
(I7
tp61
Rp62
(iquaternion
Quaternion
p63
(dp64
g13
F0.004814643
sg14
F0.02717617
sg15
F0.1743812
sg16
F0.9842914
sbsg8
(I8
tp65
Rp66
(iquaternion
Quaternion
p67
(dp68
g13
F0.0
sg14
F0.6013058
sg15
F0.0
sg16
F0.799019
sbsg8
(I6
tp69
Rp70
(iquaternion
Quaternion
p71
(dp72
g13
F0.0
sg14
F0.0
sg15
F-0.1478094
sg16
F0.9890159
sbsg8
(I21
tp73
Rp74
(iquaternion
Quaternion
p75
(dp76
g13
F0.0
sg14
F0.2515863
sg15
F0.0
sg16
F0.9678348
sbsg8
(I0
tp77
Rp78
(iquaternion
Quaternion
p79
(dp80
g13
F0.0
sg14
F0.0
sg15
F0.0
sg16
F1.0
sbsg8
(I11
tp81
Rp82
(iquaternion
Quaternion
p83
(dp84
g13
F-0.001556306
sg14
F0.06680218
sg15
F-0.02323886
sg16
F0.9974943
sbsg8
(I12
tp85
Rp86
(iquaternion
Quaternion
p87
(dp88
g13
F0.0
sg14
F0.6774449
sg15
F0.0
sg16
F0.7355735
sbsg8
(I10
tp89
Rp90
(iquaternion
Quaternion
p91
(dp92
g13
F0.0
sg14
F0.0
sg15
F0.0
sg16
F1.0
sbsg8
(I5
tp93
Rp94
(iquaternion
Quaternion
p95
(dp96
g13
F-0.03054129
sg14
F0.2027826
sg15
F0.1660124
sg16
F0.9645653
sbsg8
(I9
tp97
Rp98
(iquaternion
Quaternion
p99
(dp100
g13
F0.0
sg14
F0.2379094
sg15
F0.0
sg16
F0.9712874
sbssS'_wrist_angle'
p101
(iquaternion
Quaternion
p102
(dp103
g13
F-0.1203265
sg14
F-0.7684968
sg15
F-0.02861662
sg16
F0.627786
sbsS'_position_in_space'
p104
(F-0.2441007
F-0.1640351
F0.4894081
tp105
sbsL131029684368469926L
(ihand
Hand
p106
(dp107
g6
(dp108
g10
(iquaternion
Quaternion
p109
(dp110
g13
F0.0
sg14
F0.5880358
sg15
F0.0
sg16
F0.8088349
sbsg18
(iquaternion
Quaternion
p111
(dp112
g13
F-0.04890512
sg14
F0.1497422
sg15
F-0.3362561
sg16
F0.9285027
sbsg22
(iquaternion
Quaternion
p113
(dp114
g13
F0.0
sg14
F0.0
sg15
F0.3007058
sg16
F0.953717
sbsg26
(iquaternion
Quaternion
p115
(dp116
g13
F0.0
sg14
F0.0
sg15
F0.0
sg16
F1.0
sbsg30
(iquaternion
Quaternion
p117
(dp118
g13
F-0.06272511
sg14
F0.3061339
sg15
F0.2169135
sg16
F0.9248222
sbsg34
(iquaternion
Quaternion
p119
(dp120
g13
F0.0
sg14
F0.3719955
sg15
F0.03719955
sg16
F0.9274889
sbsg38
(iquaternion
Quaternion
p121
(dp122
g13
F0.0
sg14
F0.0
sg15
F-0.5372996
sg16
F0.8433914
sbsg42
(iquaternion
Quaternion
p123
(dp124
g13
F0.0
sg14
F0.0
sg15
F0.1305262
sg16
F0.9914449
sbsg46
(iquaternion
Quaternion
p125
(dp126
g13
F0.0
sg14
F0.5092726
sg15
F0.0
sg16
F0.8606052
sbsg50
(iquaternion
Quaternion
p127
(dp128
g13
F-0.01974375
sg14
F0.0815719
sg15
F-0.2344183
sg16
F0.9685062
sbsg54
(iquaternion
Quaternion
p129
(dp130
g13
F0.0
sg14
F0.3073252
sg15
F0.0
sg16
F0.9516045
sbsg58
(iquaternion
Quaternion
p131
(dp132
g13
F0.0
sg14
F0.233729
sg15
F0.0
sg16
F0.9723018
sbsg62
(iquaternion
Quaternion
p133
(dp134
g13
F-1.73306e-05
sg14
F-8.779879e-05
sg15
F0.1936534
sg16
F0.98107
sbsg66
(iquaternion
Quaternion
p135
(dp136
g13
F0.0
sg14
F0.6006956
sg15
F0.0
sg16
F0.7994778
sbsg70
(iquaternion
Quaternion
p137
(dp138
g13
F0.0
sg14
F0.0
sg15
F-0.1478094
sg16
F0.9890159
sbsg74
(iquaternion
Quaternion
p139
(dp140
g13
F0.0
sg14
F0.235188
sg15
F0.0
sg16
F0.9719499
sbsg78
(iquaternion
Quaternion
p141
(dp142
g13
F0.0
sg14
F0.0
sg15
F0.0
sg16
F1.0
sbsg82
(iquaternion
Quaternion
p143
(dp144
g13
F-2.94263e-05
sg14
F0.06321799
sg15
F-0.0004645424
sg16
F0.9979996
sbsg86
(iquaternion
Quaternion
p145
(dp146
g13
F0.0
sg14
F0.6761725
sg15
F0.0
sg16
F0.7367433
sbsg90
(iquaternion
Quaternion
p147
(dp148
g13
F0.0
sg14
F0.0
sg15
F0.0
sg16
F1.0
sbsg94
(iquaternion
Quaternion
p149
(dp150
g13
F-0.03118116
sg14
F0.207031
sg15
F0.1663003
sg16
F0.9635923
sbsg98
(iquaternion
Quaternion
p151
(dp152
g13
F0.0
sg14
F0.2435865
sg15
F0.0
sg16
F0.9698792
sbssg101
(iquaternion
Quaternion
p153
(dp154
g13
F-0.1263339
sg14
F-0.7687818
sg15
F-0.0334503
sg16
F0.6260155
sbsg104
(F-0.2432511
F-0.1653692
F0.4900454
tp155
sbsL131029684368637098L
(ihand
Hand
p156
(dp157
g6
(dp158
g10
(iquaternion
Quaternion
p159
(dp160
g13
F0.0
sg14
F0.5850476
sg15
F0.0
sg16
F0.8109989
sbsg18
(iquaternion
Quaternion
p161
(dp162
g13
F-0.08448556
sg14
F0.4046401
sg15
F-0.2614263
sg16
F0.8722298
sbsg22
(iquaternion
Quaternion
p163
(dp164
g13
F0.0
sg14
F0.0
sg15
F0.3007058
sg16
F0.953717
sbsg26
(iquaternion
Quaternion
p165
(dp166
g13
F0.0
sg14
F0.0
sg15
F0.0
sg16
F1.0
sbsg30
(iquaternion
Quaternion
p167
(dp168
g13
F-0.1920714
sg14
F0.5410131
sg15
F0.3550788
sg16
F0.7377889
sbsg34
(iquaternion
Quaternion
p169
(dp170
g13
F4.658414e-10
sg14
F0.02766586
sg15
F0.002766568
sg16
F0.9996134
sbsg38
(iquaternion
Quaternion
p171
(dp172
g13
F0.0
sg14
F0.0
sg15
F-0.5372996
sg16
F0.8433914
sbsg42
(iquaternion
Quaternion
p173
(dp174
g13
F0.0
sg14
F0.0
sg15
F0.1305262
sg16
F0.9914449
sbsg46
(iquaternion
Quaternion
p175
(dp176
g13
F0.0
sg14
F0.4995301
sg15
F0.0
sg16
F0.8662965
sbsg50
(iquaternion
Quaternion
p177
(dp178
g13
F-0.105805
sg14
F0.4368558
sg15
F-0.2102719
sg16
F0.8681867
sbsg54
(iquaternion
Quaternion
p179
(dp180
g13
F0.0
sg14
F0.4390482
sg15
F0.0
sg16
F0.8984635
sbsg58
(iquaternion
Quaternion
p181
(dp182
g13
F0.0
sg14
F0.4752621
sg15
F0.0
sg16
F0.8798442
sbsg62
(iquaternion
Quaternion
p183
(dp184
g13
F-0.01623769
sg14
F0.620092
sg15
F-0.02053219
sg16
F0.7840922
sbsg66
(iquaternion
Quaternion
p185
(dp186
g13
F0.0
sg14
F0.09679667
sg15
F0.0
sg16
F0.9953042
sbsg70
(iquaternion
Quaternion
p187
(dp188
g13
F0.0
sg14
F0.0
sg15
F-0.1478094
sg16
F0.9890159
sbsg74
(iquaternion
Quaternion
p189
(dp190
g13
F0.0
sg14
F0.1908577
sg15
F0.0
sg16
F0.9816177
sbsg78
(iquaternion
Quaternion
p191
(dp192
g13
F0.0
sg14
F0.0
sg15
F0.0
sg16
F1.0
sbsg82
(iquaternion
Quaternion
p193
(dp194
g13
F-0.02305118
sg14
F0.5279589
sg15
F-0.03703099
sg16
F0.848149
sbsg86
(iquaternion
Quaternion
p195
(dp196
g13
F0.0
sg14
F0.0634179
sg15
F0.0
sg16
F0.9979871
sbsg90
(iquaternion
Quaternion
p197
(dp198
g13
F0.0
sg14
F0.0
sg15
F0.0
sg16
F1.0
sbsg94
(iquaternion
Quaternion
p199
(dp200
g13
F0.004948888
sg14
F-0.03285874
sg15
F0.1455624
sg16
F0.9887909
sbsg98
(iquaternion
Quaternion
p201
(dp202
g13
F0.0
sg14
F0.0
sg15
F0.0
sg16
F1.0
sbssg101
(iquaternion
Quaternion
p203
(dp204
g13
F0.06037078
sg14
F0.8792769
sg15
F0.1099963
sg16
F-0.4594869
sbsg104
(F-0.2387528
F-0.1783449
F0.4794941
tp205
sbsL131029684367132555L
(ihand
Hand
p206
(dp207
g6
(dp208
g10
(iquaternion
Quaternion
p209
(dp210
g13
F0.0
sg14
F0.6379738
sg15
F0.0
sg16
F0.770058
sbsg18
(iquaternion
Quaternion
p211
(dp212
g13
F-0.2387211
sg14
F0.7009892
sg15
F-0.3513961
sg16
F0.5728414
sbsg22
(iquaternion
Quaternion
p213
(dp214
g13
F0.0
sg14
F0.0
sg15
F0.3007058
sg16
F0.953717
sbsg26
(iquaternion
Quaternion
p215
(dp216
g13
F0.0
sg14
F0.0
sg15
F0.0
sg16
F1.0
sbsg30
(iquaternion
Quaternion
p217
(dp218
g13
F-0.1056339
sg14
F0.3165385
sg15
F0.2686689
sg16
F0.9035828
sbsg34
(iquaternion
Quaternion
p219
(dp220
g13
F0.0
sg14
F0.4727096
sg15
F0.04727096
sg16
F0.8799495
sbsg38
(iquaternion
Quaternion
p221
(dp222
g13
F0.0
sg14
F0.0
sg15
F-0.5372996
sg16
F0.8433914
sbsg42
(iquaternion
Quaternion
p223
(dp224
g13
F0.0
sg14
F0.0
sg15
F0.1305262
sg16
F0.9914449
sbsg46
(iquaternion
Quaternion
p225
(dp226
g13
F0.0
sg14
F0.4724673
sg15
F0.0
sg16
F0.8813483
sbsg50
(iquaternion
Quaternion
p227
(dp228
g13
F-0.0825213
sg14
F0.4408341
sg15
F-0.1644546
sg16
F0.8785273
sbsg54
(iquaternion
Quaternion
p229
(dp230
g13
F0.0
sg14
F0.5
sg15
F0.0
sg16
F0.8660254
sbsg58
(iquaternion
Quaternion
p231
(dp232
g13
F0.0
sg14
F0.4810801
sg15
F0.0
sg16
F0.8766766
sbsg62
(iquaternion
Quaternion
p233
(dp234
g13
F0.02288224
sg14
F0.7700168
sg15
F0.01893931
sg16
F0.6373318
sbsg66
(iquaternion
Quaternion
p235
(dp236
g13
F0.0
sg14
F0.629077
sg15
F0.0
sg16
F0.777343
sbsg70
(iquaternion
Quaternion
p237
(dp238
g13
F0.0
sg14
F0.0
sg15
F-0.1478094
sg16
F0.9890159
sbsg74
(iquaternion
Quaternion
p239
(dp240
g13
F0.0
sg14
F0.5
sg15
F0.0
sg16
F0.8660254
sbsg78
(iquaternion
Quaternion
p241
(dp242
g13
F0.0
sg14
F0.0
sg15
F0.0
sg16
F1.0
sbsg82
(iquaternion
Quaternion
p243
(dp244
g13
F-0.02759225
sg14
F0.7541572
sg15
F-0.02398911
sg16
F0.6556753
sbsg86
(iquaternion
Quaternion
p245
(dp246
g13
F0.0
sg14
F0.6417338
sg15
F0.0
sg16
F0.7669274
sbsg90
(iquaternion
Quaternion
p247
(dp248
g13
F0.0
sg14
F0.0
sg15
F0.0
sg16
F1.0
sbsg94
(iquaternion
Quaternion
p249
(dp250
g13
F-0.02332195
sg14
F0.1548489
sg15
F0.1625603
sg16
F0.974193
sbsg98
(iquaternion
Quaternion
p251
(dp252
g13
F0.0
sg14
F0.5
sg15
F0.0
sg16
F0.8660254
sbssg101
(iquaternion
Quaternion
p253
(dp254
g13
F-0.08591875
sg14
F-0.7627645
sg15
F-0.0621107
sg16
F0.6379266
sbsg104
(F-0.2450129
F-0.1618821
F0.4838687
tp255
sbsL131029684362451758L
(ihand
Hand
p256
(dp257
g6
(dp258
g10
(iquaternion
Quaternion
p259
(dp260
g13
F0.0
sg14
F0.6593398
sg15
F0.0
sg16
F0.7518451
sbsg18
(iquaternion
Quaternion
p261
(dp262
g13
F-0.2305777
sg14
F0.7282208
sg15
F-0.3349254
sg16
F0.5516824
sbsg22
(iquaternion
Quaternion
p263
(dp264
g13
F0.0
sg14
F0.0
sg15
F0.3007058
sg16
F0.953717
sbsg26
(iquaternion
Quaternion
p265
(dp266
g13
F0.0
sg14
F0.0
sg15
F0.0
sg16
F1.0
sbsg30
(iquaternion
Quaternion
p267
(dp268
g13
F-0.1066746
sg14
F0.3002056
sg15
F0.2691505
sg16
F0.9088758
sbsg34
(iquaternion
Quaternion
p269
(dp270
g13
F-8.603189e-09
sg14
F0.4975187
sg15
F0.04975186
sg16
F0.8660254
sbsg38
(iquaternion
Quaternion
p271
(dp272
g13
F0.0
sg14
F0.0
sg15
F-0.5372996
sg16
F0.8433914
sbsg42
(iquaternion
Quaternion
p273
(dp274
g13
F0.0
sg14
F0.0
sg15
F0.1305262
sg16
F0.9914449
sbsg46
(iquaternion
Quaternion
p275
(dp276
g13
F0.0
sg14
F0.4752976
sg15
F0.0
sg16
F0.8798251
sbsg50
(iquaternion
Quaternion
p277
(dp278
g13
F-0.08648106
sg14
F0.4441848
sg15
F-0.1704206
sg16
F0.8753158
sbsg54
(iquaternion
Quaternion
p279
(dp280
g13
F0.0
sg14
F0.5
sg15
F0.0
sg16
F0.8660254
sbsg58
(iquaternion
Quaternion
p281
(dp282
g13
F0.0
sg14
F0.4792505
sg15
F0.0
sg16
F0.8776782
sbsg62
(iquaternion
Quaternion
p283
(dp284
g13
F0.02090002
sg14
F0.772762
sg15
F0.01715032
sg16
F0.6341199
sbsg66
(iquaternion
Quaternion
p285
(dp286
g13
F0.0
sg14
F0.6326385
sg15
F0.0
sg16
F0.7744473
sbsg70
(iquaternion
Quaternion
p287
(dp288
g13
F0.0
sg14
F0.0
sg15
F-0.1478094
sg16
F0.9890159
sbsg74
(iquaternion
Quaternion
p289
(dp290
g13
F0.0
sg14
F0.5
sg15
F0.0
sg16
F0.8660254
sbsg78
(iquaternion
Quaternion
p291
(dp292
g13
F0.0
sg14
F0.0
sg15
F0.0
sg16
F1.0
sbsg82
(iquaternion
Quaternion
p293
(dp294
g13
F-0.02844979
sg14
F0.7562635
sg15
F-0.02457215
sg16
F0.6531864
sbsg86
(iquaternion
Quaternion
p295
(dp296
g13
F0.0
sg14
F0.6508018
sg15
F0.0
sg16
F0.7592476
sbsg90
(iquaternion
Quaternion
p297
(dp298
g13
F0.0
sg14
F0.0
sg15
F0.0
sg16
F1.0
sbsg94
(iquaternion
Quaternion
p299
(dp300
g13
F-0.01664514
sg14
F0.1105174
sg15
F0.1590406
sg16
F0.9809256
sbsg98
(iquaternion
Quaternion
p301
(dp302
g13
F0.0
sg14
F0.5
sg15
F0.0
sg16
F0.8660254
sbssg101
(iquaternion
Quaternion
p303
(dp304
g13
F-0.0856671
sg14
F-0.7653518
sg15
F-0.0623969
sg16
F0.6348263
sbsg104
(F-0.2442997
F-0.1623727
F0.483686
tp305
sbsL131029684367466898L
(ihand
Hand
p306
(dp307
g6
(dp308
g10
(iquaternion
Quaternion
p309
(dp310
g13
F0.0
sg14
F0.6067199
sg15
F0.0
sg16
F0.7949157
sbsg18
(iquaternion
Quaternion
p311
(dp312
g13
F-0.05270226
sg14
F0.1503259
sg15
F-0.3554562
sg16
F0.9210187
sbsg22
(iquaternion
Quaternion
p313
(dp314
g13
F0.0
sg14
F0.0
sg15
F0.3007058
sg16
F0.953717
sbsg26
(iquaternion
Quaternion
p315
(dp316
g13
F0.0
sg14
F0.0
sg15
F0.0
sg16
F1.0
sbsg30
(iquaternion
Quaternion
p317
(dp318
g13
F-0.09681574
sg14
F0.3411058
sg15
F0.2606945
sg16
F0.8979487
sbsg34
(iquaternion
Quaternion
p319
(dp320
g13
F0.0
sg14
F0.4536752
sg15
F0.04536753
sg16
F0.8900115
sbsg38
(iquaternion
Quaternion
p321
(dp322
g13
F0.0
sg14
F0.0
sg15
F-0.5372996
sg16
F0.8433914
sbsg42
(iquaternion
Quaternion
p323
(dp324
g13
F0.0
sg14
F0.0
sg15
F0.1305262
sg16
F0.9914449
sbsg46
(iquaternion
Quaternion
p325
(dp326
g13
F0.0
sg14
F0.512785
sg15
F0.0
sg16
F0.8585171
sbsg50
(iquaternion
Quaternion
p327
(dp328
g13
F-0.02626244
sg14
F0.09801275
sg15
F-0.2574832
sg16
F0.9609402
sbsg54
(iquaternion
Quaternion
p329
(dp330
g13
F0.0
sg14
F0.3115395
sg15
F0.0
sg16
F0.9502332
sbsg58
(iquaternion
Quaternion
p331
(dp332
g13
F0.0
sg14
F0.2318864
sg15
F0.0
sg16
F0.9727429
sbsg62
(iquaternion
Quaternion
p333
(dp334
g13
F0.005791551
sg14
F0.03757805
sg15
F0.152212
sg16
F0.9876163
sbsg66
(iquaternion
Quaternion
p335
(dp336
g13
F0.0
sg14
F0.6435305
sg15
F0.0
sg16
F0.7654204
sbsg70
(iquaternion
Quaternion
p337
(dp338
g13
F0.0
sg14
F0.0
sg15
F-0.1478094
sg16
F0.9890159
sbsg74
(iquaternion
Quaternion
p339
(dp340
g13
F0.0
sg14
F0.2483117
sg15
F0.0
sg16
F0.9686802
sbsg78
(iquaternion
Quaternion
p341
(dp342
g13
F0.0
sg14
F0.0
sg15
F0.0
sg16
F1.0
sbsg82
(iquaternion
Quaternion
p343
(dp344
g13
F-0.003704462
sg14
F0.08484615
sg15
F-0.0434618
sg16
F0.9954388
sbsg86
(iquaternion
Quaternion
p345
(dp346
g13
F0.0
sg14
F0.6856279
sg15
F0.0
sg16
F0.7279521
sbsg90
(iquaternion
Quaternion
p347
(dp348
g13
F0.0
sg14
F0.0
sg15
F0.0
sg16
F1.0
sbsg94
(iquaternion
Quaternion
p349
(dp350
g13
F-0.02487897
sg14
F0.1651869
sg15
F0.1633362
sg16
F0.9723248
sbsg98
(iquaternion
Quaternion
p351
(dp352
g13
F0.0
sg14
F0.2010442
sg15
F0.0
sg16
F0.9795822
sbssg101
(iquaternion
Quaternion
p353
(dp354
g13
F-0.08721959
sg14
F-0.7709629
sg15
F-0.06176676
sg16
F0.6278486
sbsg104
(F-0.2452265
F-0.1622096
F0.4868163
tp355
sbssb.